target datalayout = "e-m:e-p270:32:32-p271:32:32-p272:64:64-i64:64-i128:128-f80:128-n8:16:32:64-S128"
target triple = "x86_64-pc-linux-gnu"

%struct.tok_state = type { ptr, ptr, ptr, i32, ptr, ptr, ptr, ptr, i32, ptr, i32, i32, [100 x i32], i32, i32, ptr, ptr, i32, i32, i32, i32, i32, [200 x i8], [200 x i32], [200 x i32], ptr, [100 x i32], i32, i32, ptr, i32, ptr, ptr, ptr, ptr, ptr, ptr, ptr, ptr, i32, i32, ptr, i32, [150 x %struct._tokenizer_mode], i32, i32, i32, i32 }
%struct._tokenizer_mode = type { i32, i32, i32, i8, i32, i32, ptr, ptr, i32, i64, i64, i64, i64, ptr, i32, i32 }

@.str.3 = private unnamed_addr constant [6 x i8] c"utf-8\00", align 1

; Function Attrs: nounwind uwtable
define hidden ptr @_PyTokenizer_new_string(ptr noundef %0, i64 noundef %1, ptr noundef %2) #0 {
  %4 = alloca ptr, align 8
  %5 = alloca ptr, align 8
  %6 = alloca i64, align 8
  %7 = alloca ptr, align 8
  %8 = alloca ptr, align 8
  %9 = alloca i32, align 4
  store ptr %0, ptr %5, align 8, !tbaa !9
  store i64 %1, ptr %6, align 8, !tbaa !22
  store ptr %2, ptr %7, align 8, !tbaa !4
  call void @llvm.lifetime.start.p0(i64 8, ptr %8) #8
  %10 = load i64, ptr %6, align 8, !tbaa !22
  %11 = add i64 %10, 1
  %12 = call ptr @PyMem_Malloc(i64 noundef %11)
  store ptr %12, ptr %8, align 8, !tbaa !9
  %13 = load ptr, ptr %8, align 8, !tbaa !9
  %14 = icmp ne ptr %13, null
  br i1 %14, label %18, label %15

15:                                               ; preds = %3
  %16 = load ptr, ptr %7, align 8, !tbaa !4
  %17 = getelementptr inbounds nuw %struct.tok_state, ptr %16, i32 0, i32 8
  store i32 15, ptr %17, align 8, !tbaa !15
  store ptr null, ptr %4, align 8
  store i32 1, ptr %9, align 4
  br label %26

18:                                               ; preds = %3
  %19 = load ptr, ptr %8, align 8, !tbaa !9
  %20 = load ptr, ptr %5, align 8, !tbaa !9
  %21 = load i64, ptr %6, align 8, !tbaa !22
  call void @llvm.memcpy.p0.p0.i64(ptr align 1 %19, ptr align 1 %20, i64 %21, i1 false)
  %22 = load ptr, ptr %8, align 8, !tbaa !9
  %23 = load i64, ptr %6, align 8, !tbaa !22
  %24 = getelementptr i8, ptr %22, i64 %23
  store i8 0, ptr %24, align 1, !tbaa !34
  %25 = load ptr, ptr %8, align 8, !tbaa !9
  store ptr %25, ptr %4, align 8
  store i32 1, ptr %9, align 4
  br label %26

26:                                               ; preds = %18, %15
  call void @llvm.lifetime.end.p0(i64 8, ptr %8) #8
  %27 = load ptr, ptr %4, align 8
  ret ptr %27
}

; Function Attrs: nounwind uwtable
define hidden i32 @_PyTokenizer_check_bom(ptr noundef %0, ptr noundef %1, ptr noundef %2, ptr noundef %3) #0 {
  %5 = alloca i32, align 4
  %6 = alloca ptr, align 8
  %7 = alloca ptr, align 8
  %8 = alloca ptr, align 8
  %9 = alloca ptr, align 8
  %10 = alloca i32, align 4
  %11 = alloca i32, align 4
  %12 = alloca i32, align 4
  %13 = alloca i32, align 4
  store ptr %0, ptr %6, align 8, !tbaa !37
  store ptr %1, ptr %7, align 8, !tbaa !37
  store ptr %2, ptr %8, align 8, !tbaa !37
  store ptr %3, ptr %9, align 8, !tbaa !4
  call void @llvm.lifetime.start.p0(i64 4, ptr %10) #8
  call void @llvm.lifetime.start.p0(i64 4, ptr %11) #8
  call void @llvm.lifetime.start.p0(i64 4, ptr %12) #8
  %14 = load ptr, ptr %6, align 8, !tbaa !37
  %15 = load ptr, ptr %9, align 8, !tbaa !4
  %16 = call i32 %14(ptr noundef %15)
  store i32 %16, ptr %10, align 4, !tbaa !11
  %17 = load ptr, ptr %9, align 8, !tbaa !4
  %18 = getelementptr inbounds nuw %struct.tok_state, ptr %17, i32 0, i32 27
  store i32 1, ptr %18, align 8, !tbaa !38
  %19 = load i32, ptr %10, align 4, !tbaa !11
  %20 = icmp eq i32 %19, -1
  br i1 %20, label %21, label %22

21:                                               ; preds = %4
  store i32 1, ptr %5, align 4
  store i32 1, ptr %13, align 4
  br label %80

22:                                               ; preds = %4
  %23 = load i32, ptr %10, align 4, !tbaa !11
  %24 = icmp eq i32 %23, 239
  br i1 %24, label %25, label %55

25:                                               ; preds = %22
  %26 = load ptr, ptr %6, align 8, !tbaa !37
  %27 = load ptr, ptr %9, align 8, !tbaa !4
  %28 = call i32 %26(ptr noundef %27)
  store i32 %28, ptr %11, align 4, !tbaa !11
  %29 = load i32, ptr %11, align 4, !tbaa !11
  %30 = icmp ne i32 %29, 187
  br i1 %30, label %31, label %38

31:                                               ; preds = %25
  %32 = load ptr, ptr %7, align 8, !tbaa !37
  %33 = load i32, ptr %11, align 4, !tbaa !11
  %34 = load ptr, ptr %9, align 8, !tbaa !4
  call void %32(i32 noundef %33, ptr noundef %34)
  %35 = load ptr, ptr %7, align 8, !tbaa !37
  %36 = load i32, ptr %10, align 4, !tbaa !11
  %37 = load ptr, ptr %9, align 8, !tbaa !4
  call void %35(i32 noundef %36, ptr noundef %37)
  store i32 1, ptr %5, align 4
  store i32 1, ptr %13, align 4
  br label %80

38:                                               ; preds = %25
  %39 = load ptr, ptr %6, align 8, !tbaa !37
  %40 = load ptr, ptr %9, align 8, !tbaa !4
  %41 = call i32 %39(ptr noundef %40)
  store i32 %41, ptr %12, align 4, !tbaa !11
  %42 = load i32, ptr %12, align 4, !tbaa !11
  %43 = icmp ne i32 %42, 191
  br i1 %43, label %44, label %54

44:                                               ; preds = %38
  %45 = load ptr, ptr %7, align 8, !tbaa !37
  %46 = load i32, ptr %12, align 4, !tbaa !11
  %47 = load ptr, ptr %9, align 8, !tbaa !4
  call void %45(i32 noundef %46, ptr noundef %47)
  %48 = load ptr, ptr %7, align 8, !tbaa !37
  %49 = load i32, ptr %11, align 4, !tbaa !11
  %50 = load ptr, ptr %9, align 8, !tbaa !4
  call void %48(i32 noundef %49, ptr noundef %50)
  %51 = load ptr, ptr %7, align 8, !tbaa !37
  %52 = load i32, ptr %10, align 4, !tbaa !11
  %53 = load ptr, ptr %9, align 8, !tbaa !4
  call void %51(i32 noundef %52, ptr noundef %53)
  store i32 1, ptr %5, align 4
  store i32 1, ptr %13, align 4
  br label %80

54:                                               ; preds = %38
  br label %59

55:                                               ; preds = %22
  %56 = load ptr, ptr %7, align 8, !tbaa !37
  %57 = load i32, ptr %10, align 4, !tbaa !11
  %58 = load ptr, ptr %9, align 8, !tbaa !4
  call void %56(i32 noundef %57, ptr noundef %58)
  store i32 1, ptr %5, align 4
  store i32 1, ptr %13, align 4
  br label %80

59:                                               ; preds = %54
  br label %60

60:                                               ; preds = %59
  %61 = load ptr, ptr %9, align 8, !tbaa !4
  %62 = getelementptr inbounds nuw %struct.tok_state, ptr %61, i32 0, i32 29
  %63 = load ptr, ptr %62, align 8, !tbaa !39
  %64 = icmp ne ptr %63, null
  br i1 %64, label %65, label %69

65:                                               ; preds = %60
  %66 = load ptr, ptr %9, align 8, !tbaa !4
  %67 = getelementptr inbounds nuw %struct.tok_state, ptr %66, i32 0, i32 29
  %68 = load ptr, ptr %67, align 8, !tbaa !39
  call void @PyMem_Free(ptr noundef %68)
  br label %69

69:                                               ; preds = %65, %60
  %70 = load ptr, ptr %9, align 8, !tbaa !4
  %71 = call ptr @_PyTokenizer_new_string(ptr noundef @.str.3, i64 noundef 5, ptr noundef %70)
  %72 = load ptr, ptr %9, align 8, !tbaa !4
  %73 = getelementptr inbounds nuw %struct.tok_state, ptr %72, i32 0, i32 29
  store ptr %71, ptr %73, align 8, !tbaa !39
  %74 = load ptr, ptr %9, align 8, !tbaa !4
  %75 = getelementptr inbounds nuw %struct.tok_state, ptr %74, i32 0, i32 29
  %76 = load ptr, ptr %75, align 8, !tbaa !39
  %77 = icmp ne ptr %76, null
  br i1 %77, label %79, label %78

78:                                               ; preds = %69
  store i32 0, ptr %5, align 4
  store i32 1, ptr %13, align 4
  br label %80

79:                                               ; preds = %69
  store i32 1, ptr %5, align 4
  store i32 1, ptr %13, align 4
  br label %80

80:                                               ; preds = %79, %78, %55, %44, %31, %21
  call void @llvm.lifetime.end.p0(i64 4, ptr %12) #8
  call void @llvm.lifetime.end.p0(i64 4, ptr %11) #8
  call void @llvm.lifetime.end.p0(i64 4, ptr %10) #8
  %81 = load i32, ptr %5, align 4
  ret i32 %81
}