; Function Attrs: nounwind uwtable
define hidden range(i32 0, 2) i32 @_PyTokenizer_check_bom(ptr noundef readonly captures(none) %0, ptr noundef readonly captures(none) %1, ptr noundef readnone captures(none) %2, ptr noundef %3) local_unnamed_addr #0 {
  %5 = tail call i32 %0(ptr noundef %3) #9
  %6 = getelementptr inbounds nuw i8, ptr %3, i64 2744
  store i32 1, ptr %6, align 8, !tbaa !34
  switch i32 %5, label %13 [
    i32 -1, label %24
    i32 239, label %7
  ]

7:                                                ; preds = %4
  %8 = tail call i32 %0(ptr noundef nonnull %3) #9
  %.not = icmp eq i32 %8, 187
  br i1 %.not, label %10, label %9

9:                                                ; preds = %7
  tail call void %1(i32 noundef %8, ptr noundef nonnull %3) #9
  tail call void %1(i32 noundef 239, ptr noundef nonnull %3) #9
  br label %24

10:                                               ; preds = %7
  %11 = tail call i32 %0(ptr noundef nonnull %3) #9
  %.not38 = icmp eq i32 %11, 191
  br i1 %.not38, label %14, label %12

12:                                               ; preds = %10
  tail call void %1(i32 noundef %11, ptr noundef nonnull %3) #9
  tail call void %1(i32 noundef 187, ptr noundef nonnull %3) #9
  tail call void %1(i32 noundef 239, ptr noundef nonnull %3) #9
  br label %24

13:                                               ; preds = %4
  tail call void %1(i32 noundef %5, ptr noundef nonnull %3) #9
  br label %24

14:                                               ; preds = %10
  %15 = getelementptr inbounds nuw i8, ptr %3, i64 2752
  %16 = load ptr, ptr %15, align 8, !tbaa !35
  %.not39 = icmp eq ptr %16, null
  br i1 %.not39, label %18, label %17

17:                                               ; preds = %14
  tail call void @PyMem_Free(ptr noundef nonnull %16) #9
  br label %18

18:                                               ; preds = %17, %14
  %19 = tail call ptr @PyMem_Malloc(i64 noundef 6) #9
  %.not.i = icmp ne ptr %19, null
  br i1 %.not.i, label %22, label %20

20:                                               ; preds = %18
  %21 = getelementptr inbounds nuw i8, ptr %3, i64 64
  store i32 15, ptr %21, align 8, !tbaa !4
  br label %_PyTokenizer_new_string.exit

22:                                               ; preds = %18
  tail call void @llvm.memcpy.p0.p0.i64(ptr noundef nonnull align 1 dereferenceable(5) %19, ptr noundef nonnull align 1 dereferenceable(5) @.str.3, i64 5, i1 false)
  %23 = getelementptr i8, ptr %19, i64 5
  store i8 0, ptr %23, align 1, !tbaa !22
  br label %_PyTokenizer_new_string.exit

_PyTokenizer_new_string.exit:                     ; preds = %20, %22
  store ptr %19, ptr %15, align 8, !tbaa !35
  %. = zext i1 %.not.i to i32
  br label %24

24:                                               ; preds = %_PyTokenizer_new_string.exit, %4, %13, %12, %9
  %.0 = phi i32 [ 1, %9 ], [ 1, %12 ], [ 1, %13 ], [ 1, %4 ], [ %., %_PyTokenizer_new_string.exit ]
  ret i32 %.0
}